(dp1
S'modusite_site'
p2
ccopy_reg
_reconstructor
p3
(ctwisted.plugin
CachedDropin
p4
c__builtin__
object
p5
NtRp6
(dp7
S'moduleName'
p8
S'modu.sites.modusite_site'
p9
sS'description'
p10
NsS'plugins'
p11
(lp12
g3
(ctwisted.plugin
CachedPlugin
p13
g5
NtRp14
(dp15
S'provided'
p16
(lp17
ctwisted.plugin
IPlugin
p18
acmodu.web.app
ISite
p19
asS'dropin'
p20
g6
sS'name'
p21
S'Site'
p22
sg10
Nsbasbs.