(dp1
S'test_site'
p2
ccopy_reg
_reconstructor
p3
(ctwisted.plugin
CachedDropin
p4
c__builtin__
object
p5
NtRp6
(dp7
S'moduleName'
p8
S'modu.sites.test_site'
p9
sS'description'
p10
S"\nISite implementors and sample resource classes used in the testing framework.\n\nSince the ISite implementors don't actually use real (or even valid)\nhostnames, none of these sites should ever activate in normal use.\n"
p11
sS'plugins'
p12
(lp13
g3
(ctwisted.plugin
CachedPlugin
p14
g5
NtRp15
(dp16
S'provided'
p17
(lp18
ctwisted.plugin
IPlugin
p19
acmodu.web.app
ISite
p20
asS'dropin'
p21
g6
sS'name'
p22
S'BasicTestSite'
p23
sg10
S'\n\tThis site activates only the most basic features of modu, running at /app-test.\n\t'
p24
sbag3
(g14
g5
NtRp25
(dp26
g17
(lp27
g19
ag20
asg21
g6
sg22
S'StoreTestSite'
p28
sg10
S'\n\tThis site activates a database connection and a Store.\n\t'
p29
sbag3
(g14
g5
NtRp30
(dp31
g17
(lp32
g19
ag20
asg21
g6
sg22
S'BasicRootTestSite'
p33
sg10
S'\n\tThis site activates only the most basic features of modu, running at the site root.\n\t'
p34
sbasbs.